; Function Attrs: mustprogress uwtable
define hidden noundef i32 @hb_unicode_compose(ptr noundef %0, i32 noundef %1, i32 noundef %2, ptr noundef %3) local_unnamed_addr #0 {
  store i32 0, ptr %3, align 4
  %5 = icmp ne i32 %1, 0
  %6 = icmp ne i32 %2, 0
  %or.cond.i = and i1 %5, %6
  br i1 %or.cond.i, label %7, label %_ZN18hb_unicode_funcs_t7composeEjjPj.exit

7:                                                ; preds = %4
  %8 = getelementptr inbounds i8, ptr %0, i64 64
  %9 = load ptr, ptr %8, align 8
  %10 = getelementptr inbounds i8, ptr %0, i64 128
  %11 = load ptr, ptr %10, align 8
  %12 = tail call noundef i32 %9(ptr noundef nonnull %0, i32 noundef %1, i32 noundef %2, ptr noundef nonnull %3, ptr noundef %11)
  br label %_ZN18hb_unicode_funcs_t7composeEjjPj.exit

_ZN18hb_unicode_funcs_t7composeEjjPj.exit:        ; preds = %4, %7
  %.0.i = phi i32 [ %12, %7 ], [ 0, %4 ]
  ret i32 %.0.i
}